; Function Attrs: mustprogress nofree norecurse nosync nounwind willreturn memory(read, inaccessiblemem: none) uwtable
define hidden noundef zeroext i1 @_ZNK14JNIHandleBlock14chain_containsEP8_jobject(ptr noundef nonnull readonly align 8 dereferenceable(296) %0, ptr noundef readnone %1) local_unnamed_addr #4 align 2 {
  br label %3

3:                                                ; preds = %2, %10
  %.07 = phi ptr [ %0, %2 ], [ %12, %10 ]
  %.not.i = icmp ule ptr %.07, %1
  %4 = getelementptr inbounds i8, ptr %.07, i64 256
  %5 = load i32, ptr %4, align 8
  %6 = sext i32 %5 to i64
  %7 = getelementptr inbounds [32 x i64], ptr %.07, i64 0, i64 %6
  %8 = icmp ugt ptr %7, %1
  %9 = select i1 %.not.i, i1 %8, i1 false
  br i1 %9, label %13, label %10

10:                                               ; preds = %3
  %11 = getelementptr inbounds i8, ptr %.07, i64 264
  %12 = load ptr, ptr %11, align 8
  %.not.not = icmp eq ptr %12, null
  br i1 %.not.not, label %13, label %3, !llvm.loop !15

13:                                               ; preds = %10, %3
  ret i1 %9
}